target datalayout = "e-m:e-p270:32:32-p271:32:32-p272:64:64-i64:64-i128:128-f80:128-n8:16:32:64-S128"
target triple = "x86_64-pc-linux-gnu"

%struct.reftable_write_options = type { i8, i32, i8, i16, i32, i32, i8, i8, i64, ptr, ptr, ptr }
%struct.reftable_stack = type { %struct.stat, ptr, i32, ptr, %struct.reftable_write_options, ptr, i64, ptr, %struct.reftable_compaction_stats }
%struct.stat = type { i64, i64, i64, i32, i32, i32, i32, i64, i64, i64, i64, %struct.timespec, %struct.timespec, %struct.timespec, [3 x i64] }
%struct.timespec = type { i64, i64 }
%struct.reftable_compaction_stats = type { i64, i64, i32, i32 }
%struct.reftable_iterator = type { ptr, ptr }
%struct.reftable_log_record = type { ptr, i64, i64, i32, %union.anon.0 }
%union.anon.0 = type { %struct.anon.1 }
%struct.anon.1 = type { [32 x i8], [32 x i8], ptr, ptr, i64, i16, ptr, i64 }

; Function Attrs: nounwind uwtable
define dso_local ptr @reftable_stack_merged_table(ptr noundef %0) #0 {
  %2 = alloca ptr, align 8
  store ptr %0, ptr %2, align 8, !tbaa !13
  %3 = load ptr, ptr %2, align 8, !tbaa !13
  %4 = getelementptr inbounds nuw %struct.reftable_stack, ptr %3, i32 0, i32 7
  %5 = load ptr, ptr %4, align 8, !tbaa !43
  ret ptr %5
}

; Function Attrs: nounwind uwtable
define dso_local i32 @reftable_stack_init_log_iterator(ptr noundef %0, ptr noundef %1) #0 {
  %3 = alloca ptr, align 8
  %4 = alloca ptr, align 8
  store ptr %0, ptr %3, align 8, !tbaa !13
  store ptr %1, ptr %4, align 8, !tbaa !55
  %5 = load ptr, ptr %3, align 8, !tbaa !13
  %6 = call ptr @reftable_stack_merged_table(ptr noundef %5)
  %7 = load ptr, ptr %4, align 8, !tbaa !55
  %8 = call i32 @merged_table_init_iter(ptr noundef %6, ptr noundef %7, i8 noundef zeroext 103)
  ret i32 %8
}

; Function Attrs: nounwind uwtable
define dso_local i32 @reftable_stack_read_log(ptr noundef %0, ptr noundef %1, ptr noundef %2) #0 {
  %4 = alloca ptr, align 8
  %5 = alloca ptr, align 8
  %6 = alloca ptr, align 8
  %7 = alloca %struct.reftable_iterator, align 8
  %8 = alloca i32, align 4
  store ptr %0, ptr %4, align 8, !tbaa !13
  store ptr %1, ptr %5, align 8, !tbaa !9
  store ptr %2, ptr %6, align 8, !tbaa !151
  call void @llvm.lifetime.start.p0(i64 16, ptr %7) #10
  call void @llvm.memset.p0.i64(ptr align 8 %7, i8 0, i64 16, i1 false)
  call void @llvm.lifetime.start.p0(i64 4, ptr %8) #10
  %9 = load ptr, ptr %4, align 8, !tbaa !13
  %10 = call i32 @reftable_stack_init_log_iterator(ptr noundef %9, ptr noundef %7)
  store i32 %10, ptr %8, align 4, !tbaa !15
  %11 = load i32, ptr %8, align 4, !tbaa !15
  %12 = icmp ne i32 %11, 0
  br i1 %12, label %13, label %14

13:                                               ; preds = %3
  br label %39

14:                                               ; preds = %3
  %15 = load ptr, ptr %5, align 8, !tbaa !9
  %16 = call i32 @reftable_iterator_seek_log(ptr noundef %7, ptr noundef %15)
  store i32 %16, ptr %8, align 4, !tbaa !15
  %17 = load i32, ptr %8, align 4, !tbaa !15
  %18 = icmp ne i32 %17, 0
  br i1 %18, label %19, label %20

19:                                               ; preds = %14
  br label %39

20:                                               ; preds = %14
  %21 = load ptr, ptr %6, align 8, !tbaa !151
  %22 = call i32 @reftable_iterator_next_log(ptr noundef %7, ptr noundef %21)
  store i32 %22, ptr %8, align 4, !tbaa !15
  %23 = load i32, ptr %8, align 4, !tbaa !15
  %24 = icmp ne i32 %23, 0
  br i1 %24, label %25, label %26

25:                                               ; preds = %20
  br label %39

26:                                               ; preds = %20
  %27 = load ptr, ptr %6, align 8, !tbaa !151
  %28 = getelementptr inbounds nuw %struct.reftable_log_record, ptr %27, i32 0, i32 0
  %29 = load ptr, ptr %28, align 8, !tbaa !153
  %30 = load ptr, ptr %5, align 8, !tbaa !9
  %31 = call i32 @strcmp(ptr noundef %29, ptr noundef %30) #12
  %32 = icmp ne i32 %31, 0
  br i1 %32, label %37, label %33

33:                                               ; preds = %26
  %34 = load ptr, ptr %6, align 8, !tbaa !151
  %35 = call i32 @reftable_log_record_is_deletion(ptr noundef %34)
  %36 = icmp ne i32 %35, 0
  br i1 %36, label %37, label %38

37:                                               ; preds = %33, %26
  store i32 1, ptr %8, align 4, !tbaa !15
  br label %39

38:                                               ; preds = %33
  br label %39

39:                                               ; preds = %38, %37, %25, %19, %13
  %40 = load i32, ptr %8, align 4, !tbaa !15
  %41 = icmp ne i32 %40, 0
  br i1 %41, label %42, label %44

42:                                               ; preds = %39
  %43 = load ptr, ptr %6, align 8, !tbaa !151
  call void @reftable_log_record_release(ptr noundef %43)
  br label %44

44:                                               ; preds = %42, %39
  call void @reftable_iterator_destroy(ptr noundef %7)
  %45 = load i32, ptr %8, align 4, !tbaa !15
  call void @llvm.lifetime.end.p0(i64 4, ptr %8) #10
  call void @llvm.lifetime.end.p0(i64 16, ptr %7) #10
  ret i32 %45
}