; Function Attrs: nounwind uwtable
define dso_local i32 @reftable_stack_read_log(ptr noundef readonly captures(none) %0, ptr noundef %1, ptr noundef %2) local_unnamed_addr #0 {
  %4 = alloca %struct.reftable_iterator, align 8
  call void @llvm.lifetime.start.p0(i64 16, ptr nonnull %4) #16
  call void @llvm.memset.p0.i64(ptr noundef nonnull align 8 dereferenceable(16) %4, i8 0, i64 16, i1 false)
  %5 = getelementptr inbounds nuw i8, ptr %0, i64 240
  %6 = load ptr, ptr %5, align 8, !tbaa !34
  %7 = call i32 @merged_table_init_iter(ptr noundef %6, ptr noundef nonnull %4, i8 noundef zeroext 103) #16
  %.not = icmp eq i32 %7, 0
  br i1 %.not, label %8, label %17

8:                                                ; preds = %3
  %9 = call i32 @reftable_iterator_seek_log(ptr noundef nonnull %4, ptr noundef %1) #16
  %.not14 = icmp eq i32 %9, 0
  br i1 %.not14, label %10, label %17

10:                                               ; preds = %8
  %11 = call i32 @reftable_iterator_next_log(ptr noundef nonnull %4, ptr noundef %2) #16
  %.not15 = icmp eq i32 %11, 0
  br i1 %.not15, label %12, label %17

12:                                               ; preds = %10
  %13 = load ptr, ptr %2, align 8, !tbaa !133
  %14 = call i32 @strcmp(ptr noundef nonnull dereferenceable(1) %13, ptr noundef nonnull dereferenceable(1) %1) #18
  %.not16 = icmp eq i32 %14, 0
  br i1 %.not16, label %15, label %17

15:                                               ; preds = %12
  %16 = call i32 @reftable_log_record_is_deletion(ptr noundef nonnull %2) #16
  %.not17 = icmp eq i32 %16, 0
  br i1 %.not17, label %18, label %17

17:                                               ; preds = %12, %15, %3, %8, %10
  %.0.ph = phi i32 [ %11, %10 ], [ %9, %8 ], [ %7, %3 ], [ 1, %15 ], [ 1, %12 ]
  call void @reftable_log_record_release(ptr noundef %2) #16
  br label %18

18:                                               ; preds = %15, %17
  %.022 = phi i32 [ %.0.ph, %17 ], [ 0, %15 ]
  call void @reftable_iterator_destroy(ptr noundef nonnull %4) #16
  call void @llvm.lifetime.end.p0(i64 16, ptr nonnull %4) #16
  ret i32 %.022
}